EXPORTS
    _Z15write_eye_tracePN3bfs4nodeERSo @1
    _Z23add_to_expansion_vectorPN3bfs4nodeERSt6vectorIS1_SaIS1_EE @2
    _Z7compare3zetS_ @3
    _ZN11data_struct13select_boardsEii @4
    _ZN11data_struct13select_boardsEiii @5
    _ZN11data_struct15load_board_fileEPcii @6
    _ZN11data_struct15save_board_fileEPc @7
    _ZN11data_struct24load_data_from_directoryEPci @8
    _ZN11data_struct3addE5boardybdji @9
    _ZN11data_struct5clearEv @10
    _ZN11data_struct8add_2afcE5boardyyybiidji @11
    _ZN11data_struct8add_evalE5boardiibdji @12
    _ZN11data_structD1Ev @13
    _ZN3bfs4node10determinedEv @14
    _ZN3bfs4node10update_optEPS0_ @15
    _ZN3bfs4node10update_valEPS0_ @16
    _ZN3bfs4node11update_pessEPS0_ @17
    _ZN3bfs4node13backpropagateEPS0_ @18
    _ZN3bfs4node19get_best_determinedEv @19
    _ZN3bfs4node6expandESt6vectorI3zetSaIS2_EEi @20
    _ZN3bfs4node6selectEv @21
    _ZN3bfs4node7get_optEv @22
    _ZN3bfs4node7get_valEv @23
    _ZN3bfs4node8bestmoveEv @24
    _ZN3bfs4node8get_pessEv @25
    _ZN3bfs4nodeC1E5boarddbi @26
    _ZN3bfs4nodeC2E5boarddbi @27
    _ZN4MCTS4node13backpropagateEi @28
    _ZN4MCTS4node5scoreEv @29
    _ZN4MCTS4node6expandESt6vectorI3zetSaIS2_EE @30
    _ZN4MCTS4node6selectEd @31
    _ZN4MCTS4node8bestmoveEv @32
    _ZN4MCTS4nodeC1E5boardb @33
    _ZN4MCTS4nodeC2E5boardb @34
    _ZN4MCTS4nodeD1Ev @35
    _ZN4MCTS4nodeD2Ev @36
    _ZN7pattern11just_activeER5board @37
    _ZN7pattern13diff_act_passEv @38
    _ZN7pattern14missing_piecesER5boardb @39
    _ZN7pattern6updateEPdS0_S0_ @40
    _ZN7pattern7isemptyEy @41
    _ZN7pattern9containedER5board @42
    _ZN7pattern9containedER5boardb @43
    _ZN7pattern9is_activeER5board @44
    _ZN7patternC1EyyiPdS0_S0_i @45
    _ZN7patternC2EyyiPdS0_S0_i @46
    _ZN9heuristic10addfeatureEyi @47
    _ZN9heuristic10addfeatureEyyii @48
    _ZN9heuristic12makemove_bfsE5boardb @49
    _ZN9heuristic12makemove_bfsE5boardyyb @50
    _ZN9heuristic12makemove_dfsE5boardb @51
    _ZN9heuristic12makemove_dfsE5boardyyb @52
    _ZN9heuristic13makemove_mctsE5boardb @53
    _ZN9heuristic14makerandommoveE5boardb @54
    _ZN9heuristic14makerandommoveE5boardyyb @55
    _ZN9heuristic14seed_generatorESt23mersenne_twister_engineIyLy64ELy312ELy156ELy31ELy13043109905998158313ELy29ELy6148914691236517205ELy17ELy8202884508482404352ELy37ELy18444473444759240704ELy43ELy6364136223846793005EE @56
    _ZN9heuristic14update_weightsEv @57
    _ZN9heuristic15eliminate_noiseEv @58
    _ZN9heuristic15remove_featuresEv @59
    _ZN9heuristic16get_pruned_movesER5boardb @60
    _ZN9heuristic16restore_featuresEv @61
    _ZN9heuristic20get_params_from_fileEPcii @62
    _ZN9heuristic21get_params_from_arrayEPd @63
    _ZN9heuristic22get_features_from_fileEPc @64
    _ZN9heuristic6updateEv @65
    _ZN9heuristic7playoutE5boardb @66
    _ZN9heuristic8evaluateE5board @67
    _ZN9heuristic8evaluateE5board3zet @68
    _ZN9heuristic9get_movesER5boardbb @69
    _ZN9heuristic9get_movesER5boardyyb @70
    _ZN9heuristicC1Ev @71
    _ZN9heuristicC2Ev @72
    _ZN9heuristicD1Ev @73
    _ZNKSt5ctypeIcE8do_widenEc @74
    _ZNSt19normal_distributionIdEclISt23mersenne_twister_engineIyLy64ELy312ELy156ELy31ELy13043109905998158313ELy29ELy6148914691236517205ELy17ELy8202884508482404352ELy37ELy18444473444759240704ELy43ELy6364136223846793005EEEEdRT_RKNS0_10param_typeE @75
    _ZNSt23mersenne_twister_engineIyLy64ELy312ELy156ELy31ELy13043109905998158313ELy29ELy6148914691236517205ELy17ELy8202884508482404352ELy37ELy18444473444759240704ELy43ELy6364136223846793005EEclEv @76
    _ZNSt6vectorI3zetSaIS0_EE17_M_realloc_insertIJS0_EEEvN9__gnu_cxx17__normal_iteratorIPS0_S2_EEDpOT_ @77
    _ZNSt6vectorI5trialSaIS0_EE12emplace_backIJR5boardRyRbRdRjRiEEEvDpOT_ @78
    _ZNSt6vectorI7patternSaIS0_EE12emplace_backIJS0_EEEvDpOT_ @79
    _ZNSt6vectorI7patternSaIS0_EE17_M_realloc_insertIJRKS0_EEEvN9__gnu_cxx17__normal_iteratorIPS0_S2_EEDpOT_ @80
    _ZNSt6vectorI7patternSaIS0_EE17_M_realloc_insertIJS0_EEEvN9__gnu_cxx17__normal_iteratorIPS0_S2_EEDpOT_ @81
    _ZNSt6vectorIPN3bfs4nodeESaIS2_EE17_M_default_appendEy @82
    _ZNSt6vectorIPN3bfs4nodeESaIS2_EE17_M_realloc_insertIJRKS2_EEEvN9__gnu_cxx17__normal_iteratorIPS2_S4_EEDpOT_ @83
    _ZNSt6vectorIiSaIiEE17_M_realloc_insertIJiEEEvN9__gnu_cxx17__normal_iteratorIPiS1_EEDpOT_ @84
    _ZNSt6vectorIjSaIjEE17_M_realloc_insertIJRKjEEEvN9__gnu_cxx17__normal_iteratorIPjS1_EEDpOT_ @85
    _ZNSt6vectorIySaIyEE17_M_realloc_insertIJRKyEEEvN9__gnu_cxx17__normal_iteratorIPyS1_EEDpOT_ @86
    _ZNSt8_Rb_treeIySt4pairIKydESt10_Select1stIS2_ESt4lessIyESaIS2_EE22_M_emplace_hint_uniqueIJRKSt21piecewise_construct_tSt5tupleIJRS1_EESD_IJEEEEESt17_Rb_tree_iteratorIS2_ESt23_Rb_tree_const_iteratorIS2_EDpOT_ @87
    _ZNSt8_Rb_treeIySt4pairIKydESt10_Select1stIS2_ESt4lessIyESaIS2_EE24_M_get_insert_unique_posERS1_ @88
    _ZNSt8_Rb_treeIySt4pairIKydESt10_Select1stIS2_ESt4lessIyESaIS2_EE8_M_eraseEPSt13_Rb_tree_nodeIS2_E @89
    _ZNSt8_Rb_treeIySt4pairIKyiESt10_Select1stIS2_ESt4lessIyESaIS2_EE22_M_emplace_hint_uniqueIJRKSt21piecewise_construct_tSt5tupleIJRS1_EESD_IJEEEEESt17_Rb_tree_iteratorIS2_ESt23_Rb_tree_const_iteratorIS2_EDpOT_ @90
    _ZNSt8_Rb_treeIySt4pairIKyiESt10_Select1stIS2_ESt4lessIyESaIS2_EE24_M_get_insert_unique_posERS1_ @91
    _ZNSt8_Rb_treeIySt4pairIKyiESt10_Select1stIS2_ESt4lessIyESaIS2_EE8_M_eraseEPSt13_Rb_tree_nodeIS2_E @92
    _ZSt13__adjust_heapIN9__gnu_cxx17__normal_iteratorIP3zetSt6vectorIS2_SaIS2_EEEExS2_NS0_5__ops15_Iter_comp_iterIPFbS2_S2_EEEEvT_T0_SE_T1_T2_ @93
    _ZSt13__heap_selectIN9__gnu_cxx17__normal_iteratorIP3zetSt6vectorIS2_SaIS2_EEEENS0_5__ops15_Iter_comp_iterIPFbS2_S2_EEEEvT_SD_SD_T0_ @94
    _ZSt16__insertion_sortIN9__gnu_cxx17__normal_iteratorIP3zetSt6vectorIS2_SaIS2_EEEENS0_5__ops15_Iter_comp_iterIPFbS2_S2_EEEEvT_SD_T0_ @95
    _ZSt16__introsort_loopIN9__gnu_cxx17__normal_iteratorIP3zetSt6vectorIS2_SaIS2_EEEExNS0_5__ops15_Iter_comp_iterIPFbS2_S2_EEEEvT_SD_T0_T1_ @96
    _ZSt22__move_median_to_firstIN9__gnu_cxx17__normal_iteratorIP3zetSt6vectorIS2_SaIS2_EEEENS0_5__ops15_Iter_comp_iterIPFbS2_S2_EEEEvT_SD_SD_SD_T0_ @97
    _ZSt25__unguarded_linear_insertIN9__gnu_cxx17__normal_iteratorIP3zetSt6vectorIS2_SaIS2_EEEENS0_5__ops14_Val_comp_iterIPFbS2_S2_EEEEvT_T0_ @98
    main @99
    makemove @100
